target datalayout = "e-m:e-p270:32:32-p271:32:32-p272:64:64-i64:64-i128:128-f80:128-n8:16:32:64-S128"
target triple = "x86_64-pc-linux-gnu"

%"class.bParse::bFile" = type <{ ptr, [7 x i8], i8, ptr, i32, i32, %class.b3HashMap, i32, [4 x i8], ptr, ptr, %class.b3AlignedObjectArray.4, %class.b3AlignedObjectArray.4, %class.b3AlignedObjectArray.6, %class.b3HashMap.8, %class.b3HashMap, i32, [4 x i8] }>
%class.b3AlignedObjectArray.4 = type <{ [4 x i8], i32, i32, [4 x i8], ptr, i8, [7 x i8] }>
%class.b3AlignedObjectArray.6 = type <{ [4 x i8], i32, i32, [4 x i8], ptr, i8, [7 x i8] }>
%class.b3HashMap.8 = type { %class.b3AlignedObjectArray, %class.b3AlignedObjectArray, %class.b3AlignedObjectArray.6, %class.b3AlignedObjectArray.2 }
%class.b3AlignedObjectArray = type <{ [4 x i8], i32, i32, [4 x i8], ptr, i8, [7 x i8] }>
%class.b3AlignedObjectArray.2 = type <{ [4 x i8], i32, i32, [4 x i8], ptr, i8, [7 x i8] }>
%class.b3HashMap = type { %class.b3AlignedObjectArray, %class.b3AlignedObjectArray, %class.b3AlignedObjectArray.0, %class.b3AlignedObjectArray.2 }
%class.b3AlignedObjectArray.0 = type <{ [4 x i8], i32, i32, [4 x i8], ptr, i8, [7 x i8] }>
%"class.bParse::bDNA" = type { %class.b3AlignedObjectArray, %class.b3AlignedObjectArray.9, %class.b3AlignedObjectArray.4, %class.b3AlignedObjectArray.11, %class.b3AlignedObjectArray.13, %class.b3HashMap.15, %class.b3HashMap.18, i32, [4 x i8] }
%class.b3AlignedObjectArray.9 = type <{ [4 x i8], i32, i32, [4 x i8], ptr, i8, [7 x i8] }>
%class.b3AlignedObjectArray.11 = type <{ [4 x i8], i32, i32, [4 x i8], ptr, i8, [7 x i8] }>
%class.b3AlignedObjectArray.13 = type <{ [4 x i8], i32, i32, [4 x i8], ptr, i8, [7 x i8] }>
%class.b3HashMap.15 = type { %class.b3AlignedObjectArray, %class.b3AlignedObjectArray, %class.b3AlignedObjectArray, %class.b3AlignedObjectArray.16 }
%class.b3AlignedObjectArray.16 = type <{ [4 x i8], i32, i32, [4 x i8], ptr, i8, [7 x i8] }>
%class.b3HashMap.18 = type { %class.b3AlignedObjectArray, %class.b3AlignedObjectArray, %class.b3AlignedObjectArray, %class.b3AlignedObjectArray.19 }
%class.b3AlignedObjectArray.19 = type <{ [4 x i8], i32, i32, [4 x i8], ptr, i8, [7 x i8] }>
%"struct.bParse::bNameInfo" = type { ptr, i8, i32, i32 }

; Function Attrs: inlinehint mustprogress nounwind uwtable
define linkonce_odr dso_local noundef nonnull align 2 dereferenceable(2) ptr @_ZN20b3AlignedObjectArrayIsEixEi(ptr noundef nonnull align 8 dereferenceable(25) %0, i32 noundef %1) #3 comdat align 2 {
  %3 = alloca ptr, align 8
  %4 = alloca i32, align 4
  store ptr %0, ptr %3, align 8, !tbaa !208
  store i32 %1, ptr %4, align 4, !tbaa !9
  %5 = load ptr, ptr %3, align 8
  %6 = getelementptr inbounds nuw %class.b3AlignedObjectArray.13, ptr %5, i32 0, i32 4
  %7 = load ptr, ptr %6, align 8, !tbaa !210
  %8 = load i32, ptr %4, align 4, !tbaa !9
  %9 = sext i32 %8 to i64
  %10 = getelementptr inbounds i16, ptr %7, i64 %9
  ret ptr %10
}

; Function Attrs: inlinehint mustprogress nounwind uwtable
define linkonce_odr dso_local noundef nonnull align 8 dereferenceable(24) ptr @_ZN20b3AlignedObjectArrayIN6bParse9bNameInfoEEixEi(ptr noundef nonnull align 8 dereferenceable(25) %0, i32 noundef %1) #3 comdat align 2 {
  %3 = alloca ptr, align 8
  %4 = alloca i32, align 4
  store ptr %0, ptr %3, align 8, !tbaa !204
  store i32 %1, ptr %4, align 4, !tbaa !9
  %5 = load ptr, ptr %3, align 8
  %6 = getelementptr inbounds nuw %class.b3AlignedObjectArray.9, ptr %5, i32 0, i32 4
  %7 = load ptr, ptr %6, align 8, !tbaa !207
  %8 = load i32, ptr %4, align 4, !tbaa !9
  %9 = sext i32 %8 to i64
  %10 = getelementptr inbounds %"struct.bParse::bNameInfo", ptr %7, i64 %9
  ret ptr %10
}

; Function Attrs: mustprogress uwtable
define linkonce_odr dso_local noundef i32 @_ZN6bParse4bDNA14getElementSizeEss(ptr noundef nonnull align 8 dereferenceable(420) %0, i16 noundef signext %1, i16 noundef signext %2) #0 comdat align 2 {
  %4 = alloca ptr, align 8
  %5 = alloca i16, align 2
  %6 = alloca i16, align 2
  %7 = alloca ptr, align 8
  %8 = alloca i32, align 4
  store ptr %0, ptr %4, align 8, !tbaa !78
  store i16 %1, ptr %5, align 2, !tbaa !82
  store i16 %2, ptr %6, align 2, !tbaa !82
  %9 = load ptr, ptr %4, align 8
  call void @llvm.lifetime.start.p0(i64 8, ptr %7) #16
  %10 = getelementptr inbounds nuw %"class.bParse::bDNA", ptr %9, i32 0, i32 1
  %11 = load i16, ptr %6, align 2, !tbaa !82
  %12 = sext i16 %11 to i32
  %13 = call noundef nonnull align 8 dereferenceable(24) ptr @_ZN20b3AlignedObjectArrayIN6bParse9bNameInfoEEixEi(ptr noundef nonnull align 8 dereferenceable(25) %10, i32 noundef %12)
  store ptr %13, ptr %7, align 8, !tbaa !114
  call void @llvm.lifetime.start.p0(i64 4, ptr %8) #16
  %14 = load ptr, ptr %7, align 8, !tbaa !114
  %15 = getelementptr inbounds nuw %"struct.bParse::bNameInfo", ptr %14, i32 0, i32 1
  %16 = load i8, ptr %15, align 8, !tbaa !116, !range !59, !noundef !60
  %17 = trunc i8 %16 to i1
  br i1 %17, label %18, label %29

18:                                               ; preds = %3
  %19 = getelementptr inbounds nuw %"class.bParse::bDNA", ptr %9, i32 0, i32 7
  %20 = load i32, ptr %19, align 8, !tbaa !118
  %21 = load ptr, ptr %7, align 8, !tbaa !114
  %22 = getelementptr inbounds nuw %"struct.bParse::bNameInfo", ptr %21, i32 0, i32 2
  %23 = load i32, ptr %22, align 4, !tbaa !135
  %24 = mul nsw i32 %20, %23
  %25 = load ptr, ptr %7, align 8, !tbaa !114
  %26 = getelementptr inbounds nuw %"struct.bParse::bNameInfo", ptr %25, i32 0, i32 3
  %27 = load i32, ptr %26, align 8, !tbaa !136
  %28 = mul nsw i32 %24, %27
  br label %44

29:                                               ; preds = %3
  %30 = getelementptr inbounds nuw %"class.bParse::bDNA", ptr %9, i32 0, i32 4
  %31 = load i16, ptr %5, align 2, !tbaa !82
  %32 = sext i16 %31 to i32
  %33 = call noundef nonnull align 2 dereferenceable(2) ptr @_ZN20b3AlignedObjectArrayIsEixEi(ptr noundef nonnull align 8 dereferenceable(25) %30, i32 noundef %32)
  %34 = load i16, ptr %33, align 2, !tbaa !82
  %35 = sext i16 %34 to i32
  %36 = load ptr, ptr %7, align 8, !tbaa !114
  %37 = getelementptr inbounds nuw %"struct.bParse::bNameInfo", ptr %36, i32 0, i32 2
  %38 = load i32, ptr %37, align 4, !tbaa !135
  %39 = mul nsw i32 %35, %38
  %40 = load ptr, ptr %7, align 8, !tbaa !114
  %41 = getelementptr inbounds nuw %"struct.bParse::bNameInfo", ptr %40, i32 0, i32 3
  %42 = load i32, ptr %41, align 8, !tbaa !136
  %43 = mul nsw i32 %39, %42
  br label %44

44:                                               ; preds = %29, %18
  %45 = phi i32 [ %28, %18 ], [ %43, %29 ]
  store i32 %45, ptr %8, align 4, !tbaa !9
  %46 = load i32, ptr %8, align 4, !tbaa !9
  call void @llvm.lifetime.end.p0(i64 4, ptr %8) #16
  call void @llvm.lifetime.end.p0(i64 8, ptr %7) #16
  ret i32 %46
}

; Function Attrs: mustprogress uwtable
define dso_local noundef ptr @_ZN6bParse5bFile14getFileElementEPsPcS2_S2_PS1_(ptr noundef nonnull align 8 dereferenceable(540) %0, ptr noundef %1, ptr noundef %2, ptr noundef %3, ptr noundef %4, ptr noundef %5) #0 align 2 {
  %7 = alloca ptr, align 8
  %8 = alloca ptr, align 8
  %9 = alloca ptr, align 8
  %10 = alloca ptr, align 8
  %11 = alloca ptr, align 8
  %12 = alloca ptr, align 8
  %13 = alloca ptr, align 8
  %14 = alloca ptr, align 8
  %15 = alloca i32, align 4
  %16 = alloca i32, align 4
  %17 = alloca i32, align 4
  %18 = alloca ptr, align 8
  %19 = alloca ptr, align 8
  %20 = alloca i32, align 4
  store ptr %0, ptr %8, align 8, !tbaa !16
  store ptr %1, ptr %9, align 8, !tbaa !80
  store ptr %2, ptr %10, align 8, !tbaa !4
  store ptr %3, ptr %11, align 8, !tbaa !4
  store ptr %4, ptr %12, align 8, !tbaa !4
  store ptr %5, ptr %13, align 8, !tbaa !137
  %21 = load ptr, ptr %8, align 8
  call void @llvm.lifetime.start.p0(i64 8, ptr %14) #16
  %22 = load ptr, ptr %9, align 8, !tbaa !80
  store ptr %22, ptr %14, align 8, !tbaa !80
  call void @llvm.lifetime.start.p0(i64 4, ptr %15) #16
  %23 = load ptr, ptr %14, align 8, !tbaa !80
  %24 = getelementptr inbounds i16, ptr %23, i64 1
  %25 = load i16, ptr %24, align 2, !tbaa !82
  %26 = sext i16 %25 to i32
  store i32 %26, ptr %15, align 4, !tbaa !9
  %27 = load ptr, ptr %14, align 8, !tbaa !80
  %28 = getelementptr inbounds i16, ptr %27, i64 2
  store ptr %28, ptr %14, align 8, !tbaa !80
  call void @llvm.lifetime.start.p0(i64 4, ptr %16) #16
  store i32 0, ptr %16, align 4, !tbaa !9
  br label %29

29:                                               ; preds = %84, %6
  %30 = load i32, ptr %16, align 4, !tbaa !9
  %31 = load i32, ptr %15, align 4, !tbaa !9
  %32 = icmp slt i32 %30, %31
  br i1 %32, label %34, label %33

33:                                               ; preds = %29
  store i32 2, ptr %17, align 4
  br label %89

34:                                               ; preds = %29
  call void @llvm.lifetime.start.p0(i64 8, ptr %18) #16
  %35 = getelementptr inbounds nuw %"class.bParse::bFile", ptr %21, i32 0, i32 9
  %36 = load ptr, ptr %35, align 8, !tbaa !44
  %37 = load ptr, ptr %14, align 8, !tbaa !80
  %38 = getelementptr inbounds i16, ptr %37, i64 0
  %39 = load i16, ptr %38, align 2, !tbaa !82
  %40 = sext i16 %39 to i32
  %41 = call noundef ptr @_ZN6bParse4bDNA7getTypeEi(ptr noundef nonnull align 8 dereferenceable(420) %36, i32 noundef %40)
  store ptr %41, ptr %18, align 8, !tbaa !4
  call void @llvm.lifetime.start.p0(i64 8, ptr %19) #16
  %42 = getelementptr inbounds nuw %"class.bParse::bFile", ptr %21, i32 0, i32 9
  %43 = load ptr, ptr %42, align 8, !tbaa !44
  %44 = load ptr, ptr %14, align 8, !tbaa !80
  %45 = getelementptr inbounds i16, ptr %44, i64 1
  %46 = load i16, ptr %45, align 2, !tbaa !82
  %47 = sext i16 %46 to i32
  %48 = call noundef ptr @_ZN6bParse4bDNA7getNameEi(ptr noundef nonnull align 8 dereferenceable(420) %43, i32 noundef %47)
  store ptr %48, ptr %19, align 8, !tbaa !4
  call void @llvm.lifetime.start.p0(i64 4, ptr %20) #16
  %49 = getelementptr inbounds nuw %"class.bParse::bFile", ptr %21, i32 0, i32 9
  %50 = load ptr, ptr %49, align 8, !tbaa !44
  %51 = load ptr, ptr %14, align 8, !tbaa !80
  %52 = getelementptr inbounds i16, ptr %51, i64 0
  %53 = load i16, ptr %52, align 2, !tbaa !82
  %54 = load ptr, ptr %14, align 8, !tbaa !80
  %55 = getelementptr inbounds i16, ptr %54, i64 1
  %56 = load i16, ptr %55, align 2, !tbaa !82
  %57 = call noundef i32 @_ZN6bParse4bDNA14getElementSizeEss(ptr noundef nonnull align 8 dereferenceable(420) %50, i16 noundef signext %53, i16 noundef signext %56)
  store i32 %57, ptr %20, align 4, !tbaa !9
  %58 = load ptr, ptr %10, align 8, !tbaa !4
  %59 = load ptr, ptr %19, align 8, !tbaa !4
  %60 = call i32 @strcmp(ptr noundef %58, ptr noundef %59) #17
  %61 = icmp eq i32 %60, 0
  br i1 %61, label %62, label %76

62:                                               ; preds = %34
  %63 = load ptr, ptr %18, align 8, !tbaa !4
  %64 = load ptr, ptr %11, align 8, !tbaa !4
  %65 = call i32 @strcmp(ptr noundef %63, ptr noundef %64) #17
  %66 = icmp eq i32 %65, 0
  br i1 %66, label %67, label %75

67:                                               ; preds = %62
  %68 = load ptr, ptr %13, align 8, !tbaa !137
  %69 = icmp ne ptr %68, null
  br i1 %69, label %70, label %73

70:                                               ; preds = %67
  %71 = load ptr, ptr %14, align 8, !tbaa !80
  %72 = load ptr, ptr %13, align 8, !tbaa !137
  store ptr %71, ptr %72, align 8, !tbaa !80
  br label %73

73:                                               ; preds = %70, %67
  %74 = load ptr, ptr %12, align 8, !tbaa !4
  store ptr %74, ptr %7, align 8
  store i32 1, ptr %17, align 4
  br label %81

75:                                               ; preds = %62
  store ptr null, ptr %7, align 8
  store i32 1, ptr %17, align 4
  br label %81

76:                                               ; preds = %34
  %77 = load i32, ptr %20, align 4, !tbaa !9
  %78 = load ptr, ptr %12, align 8, !tbaa !4
  %79 = sext i32 %77 to i64
  %80 = getelementptr inbounds i8, ptr %78, i64 %79
  store ptr %80, ptr %12, align 8, !tbaa !4
  store i32 0, ptr %17, align 4
  br label %81

81:                                               ; preds = %76, %75, %73
  call void @llvm.lifetime.end.p0(i64 4, ptr %20) #16
  call void @llvm.lifetime.end.p0(i64 8, ptr %19) #16
  call void @llvm.lifetime.end.p0(i64 8, ptr %18) #16
  %82 = load i32, ptr %17, align 4
  switch i32 %82, label %89 [
    i32 0, label %83
  ]

83:                                               ; preds = %81
  br label %84

84:                                               ; preds = %83
  %85 = load i32, ptr %16, align 4, !tbaa !9
  %86 = add nsw i32 %85, 1
  store i32 %86, ptr %16, align 4, !tbaa !9
  %87 = load ptr, ptr %14, align 8, !tbaa !80
  %88 = getelementptr inbounds i16, ptr %87, i64 2
  store ptr %88, ptr %14, align 8, !tbaa !80
  br label %29, !llvm.loop !138

89:                                               ; preds = %81, %33
  call void @llvm.lifetime.end.p0(i64 4, ptr %16) #16
  %90 = load i32, ptr %17, align 4
  switch i32 %90, label %92 [
    i32 2, label %91
  ]

91:                                               ; preds = %89
  store ptr null, ptr %7, align 8
  store i32 1, ptr %17, align 4
  br label %92

92:                                               ; preds = %91, %89
  call void @llvm.lifetime.end.p0(i64 4, ptr %15) #16
  call void @llvm.lifetime.end.p0(i64 8, ptr %14) #16
  %93 = load ptr, ptr %7, align 8
  ret ptr %93
}