; Function Attrs: mustprogress uwtable
define dso_local noundef ptr @_ZN6bParse5bFile14getFileElementEPsPcS2_S2_PS1_(ptr noundef nonnull readonly align 8 captures(none) dereferenceable(540) %0, ptr noundef %1, ptr noundef readonly captures(none) %2, ptr noundef readonly captures(none) %3, ptr noundef readnone captures(ret: address, provenance) %4, ptr noundef writeonly captures(address_is_null) %5) local_unnamed_addr #3 align 2 {
  %7 = getelementptr inbounds nuw i8, ptr %1, i64 2
  %8 = load i16, ptr %7, align 2, !tbaa !81
  %9 = sext i16 %8 to i32
  %.not3339 = icmp sgt i16 %8, 0
  br i1 %.not3339, label %.lr.ph, label %.thread

.lr.ph:                                           ; preds = %6
  %10 = getelementptr inbounds nuw i8, ptr %0, i64 168
  %.pre = load ptr, ptr %10, align 8, !tbaa !65
  br label %11

11:                                               ; preds = %.lr.ph, %47
  %12 = phi ptr [ %.pre, %.lr.ph ], [ %21, %47 ]
  %.02542 = phi ptr [ %4, %.lr.ph ], [ %55, %47 ]
  %.pn41 = phi ptr [ %1, %.lr.ph ], [ %.02743, %47 ]
  %.03040 = phi i32 [ 0, %.lr.ph ], [ %56, %47 ]
  %.02743 = getelementptr inbounds nuw i8, ptr %.pn41, i64 4
  %13 = load i16, ptr %.02743, align 2, !tbaa !81
  %14 = sext i16 %13 to i32
  %15 = tail call noundef ptr @_ZN6bParse4bDNA7getTypeEi(ptr noundef nonnull align 8 dereferenceable(420) %12, i32 noundef %14)
  %16 = load ptr, ptr %10, align 8, !tbaa !65
  %17 = getelementptr inbounds nuw i8, ptr %.pn41, i64 6
  %18 = load i16, ptr %17, align 2, !tbaa !81
  %19 = sext i16 %18 to i32
  %20 = tail call noundef ptr @_ZN6bParse4bDNA7getNameEi(ptr noundef nonnull align 8 dereferenceable(420) %16, i32 noundef %19)
  %21 = load ptr, ptr %10, align 8, !tbaa !65
  %22 = load i16, ptr %17, align 2, !tbaa !81
  %23 = getelementptr inbounds nuw i8, ptr %21, i64 48
  %24 = load ptr, ptr %23, align 8, !tbaa !86
  %25 = sext i16 %22 to i64
  %26 = getelementptr inbounds %"struct.bParse::bNameInfo", ptr %24, i64 %25
  %27 = getelementptr inbounds nuw i8, ptr %26, i64 8
  %28 = load i8, ptr %27, align 8, !tbaa !87, !range !60, !noundef !61
  %29 = trunc nuw i8 %28 to i1
  br i1 %29, label %30, label %33

30:                                               ; preds = %11
  %31 = getelementptr inbounds nuw i8, ptr %21, i64 416
  %32 = load i32, ptr %31, align 8, !tbaa !89
  br label %_ZN6bParse4bDNA14getElementSizeEss.exit

33:                                               ; preds = %11
  %34 = load i16, ptr %.02743, align 2, !tbaa !81
  %35 = getelementptr inbounds nuw i8, ptr %21, i64 144
  %36 = load ptr, ptr %35, align 8, !tbaa !105
  %37 = sext i16 %34 to i64
  %38 = getelementptr inbounds i16, ptr %36, i64 %37
  %39 = load i16, ptr %38, align 2, !tbaa !81
  %40 = sext i16 %39 to i32
  br label %_ZN6bParse4bDNA14getElementSizeEss.exit

_ZN6bParse4bDNA14getElementSizeEss.exit:          ; preds = %30, %33
  %.sink11.i = phi i32 [ %40, %33 ], [ %32, %30 ]
  %41 = tail call i32 @strcmp(ptr noundef nonnull dereferenceable(1) %2, ptr noundef nonnull dereferenceable(1) %20) #29
  %.not32 = icmp eq i32 %41, 0
  br i1 %.not32, label %42, label %47

42:                                               ; preds = %_ZN6bParse4bDNA14getElementSizeEss.exit
  %43 = tail call i32 @strcmp(ptr noundef nonnull dereferenceable(1) %15, ptr noundef nonnull dereferenceable(1) %3) #29
  %44 = icmp eq i32 %43, 0
  br i1 %44, label %45, label %.thread

45:                                               ; preds = %42
  %.not = icmp eq ptr %5, null
  br i1 %.not, label %.thread, label %46

46:                                               ; preds = %45
  store ptr %.02743, ptr %5, align 8, !tbaa !132
  br label %.thread

47:                                               ; preds = %_ZN6bParse4bDNA14getElementSizeEss.exit
  %48 = getelementptr inbounds nuw i8, ptr %26, i64 12
  %49 = load i32, ptr %48, align 4, !tbaa !106
  %50 = mul nsw i32 %49, %.sink11.i
  %51 = getelementptr inbounds nuw i8, ptr %26, i64 16
  %52 = load i32, ptr %51, align 8, !tbaa !107
  %53 = mul nsw i32 %50, %52
  %54 = sext i32 %53 to i64
  %55 = getelementptr inbounds i8, ptr %.02542, i64 %54
  %56 = add nuw nsw i32 %.03040, 1
  %exitcond.not = icmp eq i32 %56, %9
  br i1 %exitcond.not, label %.thread, label %11, !llvm.loop !127

.thread:                                          ; preds = %47, %6, %46, %45, %42
  %spec.select = phi ptr [ null, %42 ], [ %.02542, %45 ], [ %.02542, %46 ], [ null, %6 ], [ null, %47 ]
  ret ptr %spec.select
}